; ModuleID = '52/282.c'
source_filename = "52/282.c"
target datalayout = "e-m:e-p270:32:32-p271:32:32-p272:64:64-i64:64-f80:128-n8:16:32:64-S128"
target triple = "x86_64-pc-linux-gnu"

@.str = private unnamed_addr constant [5 x i8] c"%d%d\00", align 1
@.str.1 = private unnamed_addr constant [3 x i8] c"%d\00", align 1
@.str.2 = private unnamed_addr constant [4 x i8] c" %d\00", align 1

; Function Attrs: noinline nounwind uwtable
define dso_local i32 @main() #0 {
  %1 = alloca i32, align 4
  %2 = alloca i32*, align 8
  %3 = alloca i32, align 4
  %4 = alloca i32, align 4
  %5 = alloca i32, align 4
  %6 = alloca i32, align 4
  store i32 0, i32* %1, align 4
  %7 = call i32 (i8*, ...) @__isoc99_scanf(i8* getelementptr inbounds ([5 x i8], [5 x i8]* @.str, i64 0, i64 0), i32* %3, i32* %4)
  %8 = load i32, i32* %3, align 4
  %9 = sext i32 %8 to i64
  %10 = mul i64 4, %9
  %11 = call noalias i8* @malloc(i64 %10) #3
  %12 = bitcast i8* %11 to i32*
  store i32* %12, i32** %2, align 8
  store i32 0, i32* %6, align 4
  br label %13

13:                                               ; preds = %36, %0
  %14 = load i32, i32* %6, align 4
  %15 = load i32, i32* %3, align 4
  %16 = load i32, i32* %4, align 4
  %17 = sub nsw i32 %15, %16
  %18 = icmp slt i32 %14, %17
  br i1 %18, label %19, label %39

19:                                               ; preds = %13
  %20 = load i32*, i32** %2, align 8
  %21 = load i32, i32* %6, align 4
  %22 = sext i32 %21 to i64
  %23 = getelementptr inbounds i32, i32* %20, i64 %22
  %24 = load i32, i32* %4, align 4
  %25 = sext i32 %24 to i64
  %26 = getelementptr inbounds i32, i32* %23, i64 %25
  store i32 0, i32* %26, align 4
  %27 = call i32 (i8*, ...) @__isoc99_scanf(i8* getelementptr inbounds ([3 x i8], [3 x i8]* @.str.1, i64 0, i64 0), i32* %5)
  %28 = load i32, i32* %5, align 4
  %29 = load i32*, i32** %2, align 8
  %30 = load i32, i32* %6, align 4
  %31 = sext i32 %30 to i64
  %32 = getelementptr inbounds i32, i32* %29, i64 %31
  %33 = load i32, i32* %4, align 4
  %34 = sext i32 %33 to i64
  %35 = getelementptr inbounds i32, i32* %32, i64 %34
  store i32 %28, i32* %35, align 4
  br label %36

36:                                               ; preds = %19
  %37 = load i32, i32* %6, align 4
  %38 = add nsw i32 %37, 1
  store i32 %38, i32* %6, align 4
  br label %13

39:                                               ; preds = %13
  %40 = load i32, i32* %3, align 4
  %41 = load i32, i32* %4, align 4
  %42 = sub nsw i32 %40, %41
  store i32 %42, i32* %6, align 4
  br label %43

43:                                               ; preds = %72, %39
  %44 = load i32, i32* %6, align 4
  %45 = load i32, i32* %3, align 4
  %46 = icmp slt i32 %44, %45
  br i1 %46, label %47, label %75

47:                                               ; preds = %43
  %48 = load i32*, i32** %2, align 8
  %49 = load i32, i32* %6, align 4
  %50 = sext i32 %49 to i64
  %51 = getelementptr inbounds i32, i32* %48, i64 %50
  %52 = load i32, i32* %3, align 4
  %53 = sext i32 %52 to i64
  %54 = sub i64 0, %53
  %55 = getelementptr inbounds i32, i32* %51, i64 %54
  %56 = load i32, i32* %4, align 4
  %57 = sext i32 %56 to i64
  %58 = getelementptr inbounds i32, i32* %55, i64 %57
  store i32 0, i32* %58, align 4
  %59 = call i32 (i8*, ...) @__isoc99_scanf(i8* getelementptr inbounds ([3 x i8], [3 x i8]* @.str.1, i64 0, i64 0), i32* %5)
  %60 = load i32, i32* %5, align 4
  %61 = load i32*, i32** %2, align 8
  %62 = load i32, i32* %6, align 4
  %63 = sext i32 %62 to i64
  %64 = getelementptr inbounds i32, i32* %61, i64 %63
  %65 = load i32, i32* %3, align 4
  %66 = sext i32 %65 to i64
  %67 = sub i64 0, %66
  %68 = getelementptr inbounds i32, i32* %64, i64 %67
  %69 = load i32, i32* %4, align 4
  %70 = sext i32 %69 to i64
  %71 = getelementptr inbounds i32, i32* %68, i64 %70
  store i32 %60, i32* %71, align 4
  br label %72

72:                                               ; preds = %47
  %73 = load i32, i32* %6, align 4
  %74 = add nsw i32 %73, 1
  store i32 %74, i32* %6, align 4
  br label %43

75:                                               ; preds = %43
  %76 = load i32*, i32** %2, align 8
  %77 = getelementptr inbounds i32, i32* %76, i64 0
  %78 = load i32, i32* %77, align 4
  %79 = call i32 (i8*, ...) @printf(i8* getelementptr inbounds ([3 x i8], [3 x i8]* @.str.1, i64 0, i64 0), i32 %78)
  store i32 1, i32* %6, align 4
  br label %80

80:                                               ; preds = %91, %75
  %81 = load i32, i32* %6, align 4
  %82 = load i32, i32* %3, align 4
  %83 = icmp slt i32 %81, %82
  br i1 %83, label %84, label %94

84:                                               ; preds = %80
  %85 = load i32*, i32** %2, align 8
  %86 = load i32, i32* %6, align 4
  %87 = sext i32 %86 to i64
  %88 = getelementptr inbounds i32, i32* %85, i64 %87
  %89 = load i32, i32* %88, align 4
  %90 = call i32 (i8*, ...) @printf(i8* getelementptr inbounds ([4 x i8], [4 x i8]* @.str.2, i64 0, i64 0), i32 %89)
  br label %91

91:                                               ; preds = %84
  %92 = load i32, i32* %6, align 4
  %93 = add nsw i32 %92, 1
  store i32 %93, i32* %6, align 4
  br label %80

94:                                               ; preds = %80
  %95 = load i32*, i32** %2, align 8
  %96 = bitcast i32* %95 to i8*
  call void @free(i8* %96) #3
  ret i32 0
}

declare dso_local i32 @__isoc99_scanf(i8*, ...) #1

; Function Attrs: nounwind
declare dso_local noalias i8* @malloc(i64) #2

declare dso_local i32 @printf(i8*, ...) #1

; Function Attrs: nounwind
declare dso_local void @free(i8*) #2


!llvm.module.flags = !{!0}
!llvm.ident = !{!1}

!0 = !{i32 1, !"wchar_size", i32 4}
!1 = !{!"clang version 10.0.0-4ubuntu1 "}
